; Function Attrs: mustprogress nofree norecurse nosync nounwind willreturn memory(argmem: write) uwtable
define dso_local void @_ZN29btGeneric6DofSpringConstraint12enableSpringEib(ptr nocapture noundef nonnull writeonly align 8 dereferenceable(1412) %this, i32 noundef %index, i1 noundef zeroext %onOff) local_unnamed_addr #4 align 2 {
entry:
  %frombool = zext i1 %onOff to i8
  %m_springEnabled = getelementptr inbounds i8, ptr %this, i64 1333
  %idxprom = sext i32 %index to i64
  %arrayidx = getelementptr inbounds [6 x i8], ptr %m_springEnabled, i64 0, i64 %idxprom
  store i8 %frombool, ptr %arrayidx, align 1
  %cmp = icmp slt i32 %index, 3
  br i1 %cmp, label %if.then, label %if.else

if.then:                                          ; preds = %entry
  %m_enableMotor = getelementptr inbounds i8, ptr %this, i64 812
  %arrayidx5 = getelementptr inbounds [3 x i8], ptr %m_enableMotor, i64 0, i64 %idxprom
  store i8 %frombool, ptr %arrayidx5, align 1
  br label %if.end

if.else:                                          ; preds = %entry
  %m_angularLimits = getelementptr inbounds i8, ptr %this, i64 892
  %sub = add nsw i32 %index, -3
  %idxprom8 = zext nneg i32 %sub to i64
  %m_enableMotor10 = getelementptr inbounds [3 x %class.btRotationalLimitMotor], ptr %m_angularLimits, i64 0, i64 %idxprom8, i32 11
  store i8 %frombool, ptr %m_enableMotor10, align 8
  br label %if.end

if.end:                                           ; preds = %if.else, %if.then
  ret void
}